target datalayout = "e-m:e-p270:32:32-p271:32:32-p272:64:64-i64:64-i128:128-f80:128-n8:16:32:64-S128"
target triple = "x86_64-pc-linux-gnu"

%"struct.OpenImageIO::v3_1_0::TypeDesc" = type { i8, i8, i8, i8, i32 }
%"class.OpenImageIO::v3_1_0::ImageOutput" = type { ptr, %"class.OpenImageIO::v3_1_0::ImageSpec", %"class.std::unique_ptr" }
%"class.OpenImageIO::v3_1_0::ImageSpec" = type { i32, i32, i32, i32, i32, i32, i32, i32, i32, i32, i32, i32, i32, i32, i32, i32, %"struct.OpenImageIO::v3_1_0::TypeDesc", %"class.std::vector", %"class.std::vector.4", i32, i32, i8, %"class.OpenImageIO::v3_1_0::ParamValueList" }
%"class.std::vector" = type { %"struct.std::_Vector_base" }
%"struct.std::_Vector_base" = type { %"struct.std::_Vector_base<OpenImageIO::v3_1_0::TypeDesc, std::allocator<OpenImageIO::v3_1_0::TypeDesc>>::_Vector_impl" }
%"struct.std::_Vector_base<OpenImageIO::v3_1_0::TypeDesc, std::allocator<OpenImageIO::v3_1_0::TypeDesc>>::_Vector_impl" = type { %"struct.std::_Vector_base<OpenImageIO::v3_1_0::TypeDesc, std::allocator<OpenImageIO::v3_1_0::TypeDesc>>::_Vector_impl_data" }
%"struct.std::_Vector_base<OpenImageIO::v3_1_0::TypeDesc, std::allocator<OpenImageIO::v3_1_0::TypeDesc>>::_Vector_impl_data" = type { ptr, ptr, ptr }
%"class.std::vector.4" = type { %"struct.std::_Vector_base.5" }
%"struct.std::_Vector_base.5" = type { %"struct.std::_Vector_base<std::__cxx11::basic_string<char>, std::allocator<std::__cxx11::basic_string<char>>>::_Vector_impl" }
%"struct.std::_Vector_base<std::__cxx11::basic_string<char>, std::allocator<std::__cxx11::basic_string<char>>>::_Vector_impl" = type { %"struct.std::_Vector_base<std::__cxx11::basic_string<char>, std::allocator<std::__cxx11::basic_string<char>>>::_Vector_impl_data" }
%"struct.std::_Vector_base<std::__cxx11::basic_string<char>, std::allocator<std::__cxx11::basic_string<char>>>::_Vector_impl_data" = type { ptr, ptr, ptr }
%"class.OpenImageIO::v3_1_0::ParamValueList" = type { %"class.std::vector.9" }
%"class.std::vector.9" = type { %"struct.std::_Vector_base.10" }
%"struct.std::_Vector_base.10" = type { %"struct.std::_Vector_base<OpenImageIO::v3_1_0::ParamValue, std::allocator<OpenImageIO::v3_1_0::ParamValue>>::_Vector_impl" }
%"struct.std::_Vector_base<OpenImageIO::v3_1_0::ParamValue, std::allocator<OpenImageIO::v3_1_0::ParamValue>>::_Vector_impl" = type { %"struct.std::_Vector_base<OpenImageIO::v3_1_0::ParamValue, std::allocator<OpenImageIO::v3_1_0::ParamValue>>::_Vector_impl_data" }
%"struct.std::_Vector_base<OpenImageIO::v3_1_0::ParamValue, std::allocator<OpenImageIO::v3_1_0::ParamValue>>::_Vector_impl_data" = type { ptr, ptr, ptr }
%"class.std::unique_ptr" = type { %"struct.std::__uniq_ptr_data" }
%"struct.std::__uniq_ptr_data" = type { %"class.std::__uniq_ptr_impl" }
%"class.std::__uniq_ptr_impl" = type { %"class.std::tuple" }
%"class.std::tuple" = type { %"struct.std::_Tuple_impl" }
%"struct.std::_Tuple_impl" = type { %"struct.std::_Tuple_impl.14", %"struct.std::_Head_base.15" }
%"struct.std::_Tuple_impl.14" = type { %"struct.std::_Head_base" }
%"struct.std::_Head_base" = type { ptr }
%"struct.std::_Head_base.15" = type { ptr }

; Function Attrs: mustprogress nounwind uwtable
define linkonce_odr noundef i64 @_ZNK11OpenImageIO6v3_1_08TypeDesc11elementsizeEv(ptr noundef nonnull align 4 dereferenceable(8) %0) #7 comdat align 2 {
  %2 = alloca ptr, align 8
  store ptr %0, ptr %2, align 8, !tbaa !215
  %3 = load ptr, ptr %2, align 8
  %4 = getelementptr inbounds nuw %"struct.OpenImageIO::v3_1_0::TypeDesc", ptr %3, i32 0, i32 1
  %5 = load i8, ptr %4, align 1, !tbaa !223
  %6 = zext i8 %5 to i64
  %7 = call noundef i64 @_ZNK11OpenImageIO6v3_1_08TypeDesc8basesizeEv(ptr noundef nonnull align 4 dereferenceable(8) %3) #3
  %8 = mul i64 %6, %7
  ret i64 %8
}

; Function Attrs: mustprogress nounwind uwtable
define linkonce_odr void @_ZN11OpenImageIO6v3_1_09ImageSpec11auto_strideERlS2_S2_liii(ptr noundef nonnull align 8 dereferenceable(8) %0, ptr noundef nonnull align 8 dereferenceable(8) %1, ptr noundef nonnull align 8 dereferenceable(8) %2, i64 noundef %3, i32 noundef %4, i32 noundef %5, i32 noundef %6) #7 comdat align 2 {
  %8 = alloca ptr, align 8
  %9 = alloca ptr, align 8
  %10 = alloca ptr, align 8
  %11 = alloca i64, align 8
  %12 = alloca i32, align 4
  %13 = alloca i32, align 4
  %14 = alloca i32, align 4
  store ptr %0, ptr %8, align 8, !tbaa !416
  store ptr %1, ptr %9, align 8, !tbaa !416
  store ptr %2, ptr %10, align 8, !tbaa !416
  store i64 %3, ptr %11, align 8, !tbaa !251
  store i32 %4, ptr %12, align 4, !tbaa !15
  store i32 %5, ptr %13, align 4, !tbaa !15
  store i32 %6, ptr %14, align 4, !tbaa !15
  %15 = load ptr, ptr %8, align 8, !tbaa !416
  %16 = load i64, ptr %15, align 8, !tbaa !251
  %17 = icmp eq i64 %16, -9223372036854775808
  br i1 %17, label %18, label %24

18:                                               ; preds = %7
  %19 = load i32, ptr %12, align 4, !tbaa !15
  %20 = sext i32 %19 to i64
  %21 = load i64, ptr %11, align 8, !tbaa !251
  %22 = mul nsw i64 %20, %21
  %23 = load ptr, ptr %8, align 8, !tbaa !416
  store i64 %22, ptr %23, align 8, !tbaa !251
  br label %24

24:                                               ; preds = %18, %7
  %25 = load ptr, ptr %9, align 8, !tbaa !416
  %26 = load i64, ptr %25, align 8, !tbaa !251
  %27 = icmp eq i64 %26, -9223372036854775808
  br i1 %27, label %28, label %35

28:                                               ; preds = %24
  %29 = load ptr, ptr %8, align 8, !tbaa !416
  %30 = load i64, ptr %29, align 8, !tbaa !251
  %31 = load i32, ptr %13, align 4, !tbaa !15
  %32 = sext i32 %31 to i64
  %33 = mul nsw i64 %30, %32
  %34 = load ptr, ptr %9, align 8, !tbaa !416
  store i64 %33, ptr %34, align 8, !tbaa !251
  br label %35

35:                                               ; preds = %28, %24
  %36 = load ptr, ptr %10, align 8, !tbaa !416
  %37 = load i64, ptr %36, align 8, !tbaa !251
  %38 = icmp eq i64 %37, -9223372036854775808
  br i1 %38, label %39, label %46

39:                                               ; preds = %35
  %40 = load ptr, ptr %9, align 8, !tbaa !416
  %41 = load i64, ptr %40, align 8, !tbaa !251
  %42 = load i32, ptr %14, align 4, !tbaa !15
  %43 = sext i32 %42 to i64
  %44 = mul nsw i64 %41, %43
  %45 = load ptr, ptr %10, align 8, !tbaa !416
  store i64 %44, ptr %45, align 8, !tbaa !251
  br label %46

46:                                               ; preds = %39, %35
  ret void
}

; Function Attrs: mustprogress nounwind uwtable
define linkonce_odr noundef i64 @_ZNK11OpenImageIO6v3_1_08TypeDesc4sizeEv(ptr noundef nonnull align 4 dereferenceable(8) %0) #7 comdat align 2 {
  %2 = alloca ptr, align 8
  %3 = alloca i64, align 8
  store ptr %0, ptr %2, align 8, !tbaa !215
  %4 = load ptr, ptr %2, align 8
  call void @llvm.lifetime.start.p0(i64 8, ptr %3) #3
  %5 = getelementptr inbounds nuw %"struct.OpenImageIO::v3_1_0::TypeDesc", ptr %4, i32 0, i32 4
  %6 = load i32, ptr %5, align 4, !tbaa !226
  %7 = icmp sgt i32 %6, 0
  br i1 %7, label %8, label %11

8:                                                ; preds = %1
  %9 = getelementptr inbounds nuw %"struct.OpenImageIO::v3_1_0::TypeDesc", ptr %4, i32 0, i32 4
  %10 = load i32, ptr %9, align 4, !tbaa !226
  br label %12

11:                                               ; preds = %1
  br label %12

12:                                               ; preds = %11, %8
  %13 = phi i32 [ %10, %8 ], [ 1, %11 ]
  %14 = sext i32 %13 to i64
  store i64 %14, ptr %3, align 8, !tbaa !251
  %15 = load i64, ptr %3, align 8, !tbaa !251
  %16 = call noundef i64 @_ZNK11OpenImageIO6v3_1_08TypeDesc11elementsizeEv(ptr noundef nonnull align 4 dereferenceable(8) %4) #3
  %17 = mul i64 %15, %16
  call void @llvm.lifetime.end.p0(i64 8, ptr %3) #3
  ret i64 %17
}

; Function Attrs: mustprogress nounwind uwtable
define linkonce_odr noundef zeroext i1 @_ZNK11OpenImageIO6v3_1_08TypeDesc8is_arrayEv(ptr noundef nonnull align 4 dereferenceable(8) %0) #7 comdat align 2 {
  %2 = alloca ptr, align 8
  store ptr %0, ptr %2, align 8, !tbaa !215
  %3 = load ptr, ptr %2, align 8
  %4 = getelementptr inbounds nuw %"struct.OpenImageIO::v3_1_0::TypeDesc", ptr %3, i32 0, i32 4
  %5 = load i32, ptr %4, align 4, !tbaa !226
  %6 = icmp ne i32 %5, 0
  ret i1 %6
}

; Function Attrs: inlinehint mustprogress nounwind uwtable
define linkonce_odr noundef nonnull align 4 dereferenceable(4) ptr @_ZSt3minIiERKT_S2_S2_(ptr noundef nonnull align 4 dereferenceable(4) %0, ptr noundef nonnull align 4 dereferenceable(4) %1) #4 comdat {
  %3 = alloca ptr, align 8
  %4 = alloca ptr, align 8
  %5 = alloca ptr, align 8
  store ptr %0, ptr %4, align 8, !tbaa !21
  store ptr %1, ptr %5, align 8, !tbaa !21
  %6 = load ptr, ptr %5, align 8, !tbaa !21
  %7 = load i32, ptr %6, align 4, !tbaa !15
  %8 = load ptr, ptr %4, align 8, !tbaa !21
  %9 = load i32, ptr %8, align 4, !tbaa !15
  %10 = icmp slt i32 %7, %9
  br i1 %10, label %11, label %13

11:                                               ; preds = %2
  %12 = load ptr, ptr %5, align 8, !tbaa !21
  store ptr %12, ptr %3, align 8
  br label %15

13:                                               ; preds = %2
  %14 = load ptr, ptr %4, align 8, !tbaa !21
  store ptr %14, ptr %3, align 8
  br label %15

15:                                               ; preds = %13, %11
  %16 = load ptr, ptr %3, align 8
  ret ptr %16
}

; Function Attrs: mustprogress nounwind uwtable
define linkonce_odr void @_ZN11OpenImageIO6v3_1_09ImageSpec11auto_strideERlS2_S2_NS0_8TypeDescEiii(ptr noundef nonnull align 8 dereferenceable(8) %0, ptr noundef nonnull align 8 dereferenceable(8) %1, ptr noundef nonnull align 8 dereferenceable(8) %2, i64 %3, i32 noundef %4, i32 noundef %5, i32 noundef %6) #7 comdat align 2 {
  %8 = alloca %"struct.OpenImageIO::v3_1_0::TypeDesc", align 4
  %9 = alloca ptr, align 8
  %10 = alloca ptr, align 8
  %11 = alloca ptr, align 8
  %12 = alloca i32, align 4
  %13 = alloca i32, align 4
  %14 = alloca i32, align 4
  store i64 %3, ptr %8, align 4
  store ptr %0, ptr %9, align 8, !tbaa !416
  store ptr %1, ptr %10, align 8, !tbaa !416
  store ptr %2, ptr %11, align 8, !tbaa !416
  store i32 %4, ptr %12, align 4, !tbaa !15
  store i32 %5, ptr %13, align 4, !tbaa !15
  store i32 %6, ptr %14, align 4, !tbaa !15
  %15 = load ptr, ptr %9, align 8, !tbaa !416
  %16 = load ptr, ptr %10, align 8, !tbaa !416
  %17 = load ptr, ptr %11, align 8, !tbaa !416
  %18 = call noundef i64 @_ZNK11OpenImageIO6v3_1_08TypeDesc4sizeEv(ptr noundef nonnull align 4 dereferenceable(8) %8) #3
  %19 = load i32, ptr %12, align 4, !tbaa !15
  %20 = load i32, ptr %13, align 4, !tbaa !15
  %21 = load i32, ptr %14, align 4, !tbaa !15
  call void @_ZN11OpenImageIO6v3_1_09ImageSpec11auto_strideERlS2_S2_liii(ptr noundef nonnull align 8 dereferenceable(8) %15, ptr noundef nonnull align 8 dereferenceable(8) %16, ptr noundef nonnull align 8 dereferenceable(8) %17, i64 noundef %18, i32 noundef %19, i32 noundef %20, i32 noundef %21) #3
  ret void
}

; Function Attrs: mustprogress nounwind uwtable
define linkonce_odr noundef nonnull align 8 dereferenceable(160) ptr @_ZNK11OpenImageIO6v3_1_011ImageOutput4specEv(ptr noundef nonnull align 8 dereferenceable(184) %0) #7 comdat align 2 {
  %2 = alloca ptr, align 8
  store ptr %0, ptr %2, align 8, !tbaa !283
  %3 = load ptr, ptr %2, align 8
  %4 = getelementptr inbounds nuw %"class.OpenImageIO::v3_1_0::ImageOutput", ptr %3, i32 0, i32 1
  ret ptr %4
}

; Function Attrs: mustprogress nounwind uwtable
define linkonce_odr hidden noundef zeroext i1 @_ZN11OpenImageIO6v3_1_0eqERKNS0_8TypeDescENS1_8BASETYPEE(ptr noundef nonnull align 4 dereferenceable(8) %0, i32 noundef %1) #7 comdat {
  %3 = alloca ptr, align 8
  %4 = alloca i32, align 4
  store ptr %0, ptr %3, align 8, !tbaa !215
  store i32 %1, ptr %4, align 4, !tbaa !216
  %5 = load ptr, ptr %3, align 8, !tbaa !215
  %6 = getelementptr inbounds nuw %"struct.OpenImageIO::v3_1_0::TypeDesc", ptr %5, i32 0, i32 0
  %7 = load i8, ptr %6, align 4, !tbaa !222
  %8 = zext i8 %7 to i32
  %9 = load i32, ptr %4, align 4, !tbaa !216
  %10 = icmp eq i32 %8, %9
  br i1 %10, label %11, label %21

11:                                               ; preds = %2
  %12 = load ptr, ptr %3, align 8, !tbaa !215
  %13 = getelementptr inbounds nuw %"struct.OpenImageIO::v3_1_0::TypeDesc", ptr %12, i32 0, i32 1
  %14 = load i8, ptr %13, align 1, !tbaa !223
  %15 = zext i8 %14 to i32
  %16 = icmp eq i32 %15, 1
  br i1 %16, label %17, label %21

17:                                               ; preds = %11
  %18 = load ptr, ptr %3, align 8, !tbaa !215
  %19 = call noundef zeroext i1 @_ZNK11OpenImageIO6v3_1_08TypeDesc8is_arrayEv(ptr noundef nonnull align 4 dereferenceable(8) %18) #3
  %20 = xor i1 %19, true
  br label %21

21:                                               ; preds = %17, %11, %2
  %22 = phi i1 [ false, %11 ], [ false, %2 ], [ %20, %17 ]
  ret i1 %22
}

; Function Attrs: mustprogress uwtable
define hidden noundef zeroext i1 @_ZN11OpenImageIO6v3_1_013OpenEXROutput10write_tileEiiiNS0_8TypeDescEPKvlll(ptr noundef nonnull align 8 dereferenceable(384) %0, i32 noundef %1, i32 noundef %2, i32 noundef %3, i64 %4, ptr noundef %5, i64 noundef %6, i64 noundef %7, i64 noundef %8) unnamed_addr #8 align 2 {
  %10 = alloca %"struct.OpenImageIO::v3_1_0::TypeDesc", align 4
  %11 = alloca ptr, align 8
  %12 = alloca i32, align 4
  %13 = alloca i32, align 4
  %14 = alloca i32, align 4
  %15 = alloca ptr, align 8
  %16 = alloca i64, align 8
  %17 = alloca i64, align 8
  %18 = alloca i64, align 8
  %19 = alloca i8, align 1
  %20 = alloca %"struct.OpenImageIO::v3_1_0::TypeDesc", align 4
  %21 = alloca i32, align 4
  %22 = alloca i32, align 4
  %23 = alloca i32, align 4
  %24 = alloca i32, align 4
  %25 = alloca i32, align 4
  %26 = alloca i32, align 4
  %27 = alloca %"struct.OpenImageIO::v3_1_0::TypeDesc", align 4
  store i64 %4, ptr %10, align 4
  store ptr %0, ptr %11, align 8, !tbaa !33
  store i32 %1, ptr %12, align 4, !tbaa !15
  store i32 %2, ptr %13, align 4, !tbaa !15
  store i32 %3, ptr %14, align 4, !tbaa !15
  store ptr %5, ptr %15, align 8, !tbaa !296
  store i64 %6, ptr %16, align 8, !tbaa !251
  store i64 %7, ptr %17, align 8, !tbaa !251
  store i64 %8, ptr %18, align 8, !tbaa !251
  %28 = load ptr, ptr %11, align 8
  call void @llvm.lifetime.start.p0(i64 1, ptr %19) #3
  %29 = call noundef zeroext i1 @_ZN11OpenImageIO6v3_1_0eqERKNS0_8TypeDescENS1_8BASETYPEE(ptr noundef nonnull align 4 dereferenceable(8) %10, i32 noundef 0) #3
  %30 = zext i1 %29 to i8
  store i8 %30, ptr %19, align 1, !tbaa !249
  %31 = load i8, ptr %19, align 1, !tbaa !249, !range !230, !noundef !231
  %32 = trunc i8 %31 to i1
  br i1 %32, label %33, label %41

33:                                               ; preds = %9
  %34 = load i64, ptr %16, align 8, !tbaa !251
  %35 = icmp eq i64 %34, -9223372036854775808
  br i1 %35, label %36, label %41

36:                                               ; preds = %33
  %37 = getelementptr inbounds nuw %"class.OpenImageIO::v3_1_0::ImageOutput", ptr %28, i32 0, i32 1
  %38 = load i8, ptr %19, align 1, !tbaa !249, !range !230, !noundef !231
  %39 = trunc i8 %38 to i1
  %40 = call noundef i64 @_ZNK11OpenImageIO6v3_1_09ImageSpec11pixel_bytesEb(ptr noundef nonnull align 8 dereferenceable(160) %37, i1 noundef zeroext %39) #3
  store i64 %40, ptr %16, align 8, !tbaa !251
  br label %41

41:                                               ; preds = %36, %33, %9
  call void @llvm.memcpy.p0.p0.i64(ptr align 4 %20, ptr align 4 %10, i64 8, i1 false), !tbaa.struct !23
  %42 = call noundef nonnull align 8 dereferenceable(160) ptr @_ZNK11OpenImageIO6v3_1_011ImageOutput4specEv(ptr noundef nonnull align 8 dereferenceable(184) %28)
  %43 = getelementptr inbounds nuw %"class.OpenImageIO::v3_1_0::ImageSpec", ptr %42, i32 0, i32 15
  %44 = load i32, ptr %43, align 4, !tbaa !263
  %45 = getelementptr inbounds nuw %"class.OpenImageIO::v3_1_0::ImageOutput", ptr %28, i32 0, i32 1
  %46 = getelementptr inbounds nuw %"class.OpenImageIO::v3_1_0::ImageSpec", ptr %45, i32 0, i32 12
  %47 = load i32, ptr %46, align 8, !tbaa !213
  %48 = getelementptr inbounds nuw %"class.OpenImageIO::v3_1_0::ImageOutput", ptr %28, i32 0, i32 1
  %49 = getelementptr inbounds nuw %"class.OpenImageIO::v3_1_0::ImageSpec", ptr %48, i32 0, i32 13
  %50 = load i32, ptr %49, align 4, !tbaa !242
  %51 = load i64, ptr %20, align 4
  call void @_ZN11OpenImageIO6v3_1_09ImageSpec11auto_strideERlS2_S2_NS0_8TypeDescEiii(ptr noundef nonnull align 8 dereferenceable(8) %16, ptr noundef nonnull align 8 dereferenceable(8) %17, ptr noundef nonnull align 8 dereferenceable(8) %18, i64 %51, i32 noundef %44, i32 noundef %47, i32 noundef %50) #3
  %52 = load i32, ptr %12, align 4, !tbaa !15
  call void @llvm.lifetime.start.p0(i64 4, ptr %21) #3
  %53 = load i32, ptr %12, align 4, !tbaa !15
  %54 = getelementptr inbounds nuw %"class.OpenImageIO::v3_1_0::ImageOutput", ptr %28, i32 0, i32 1
  %55 = getelementptr inbounds nuw %"class.OpenImageIO::v3_1_0::ImageSpec", ptr %54, i32 0, i32 12
  %56 = load i32, ptr %55, align 8, !tbaa !213
  %57 = add nsw i32 %53, %56
  store i32 %57, ptr %21, align 4, !tbaa !15
  call void @llvm.lifetime.start.p0(i64 4, ptr %22) #3
  %58 = getelementptr inbounds nuw %"class.OpenImageIO::v3_1_0::ImageOutput", ptr %28, i32 0, i32 1
  %59 = getelementptr inbounds nuw %"class.OpenImageIO::v3_1_0::ImageSpec", ptr %58, i32 0, i32 0
  %60 = load i32, ptr %59, align 8, !tbaa !379
  %61 = getelementptr inbounds nuw %"class.OpenImageIO::v3_1_0::ImageOutput", ptr %28, i32 0, i32 1
  %62 = getelementptr inbounds nuw %"class.OpenImageIO::v3_1_0::ImageSpec", ptr %61, i32 0, i32 3
  %63 = load i32, ptr %62, align 4, !tbaa !244
  %64 = add nsw i32 %60, %63
  store i32 %64, ptr %22, align 4, !tbaa !15
  %65 = call noundef nonnull align 4 dereferenceable(4) ptr @_ZSt3minIiERKT_S2_S2_(ptr noundef nonnull align 4 dereferenceable(4) %21, ptr noundef nonnull align 4 dereferenceable(4) %22)
  %66 = load i32, ptr %65, align 4, !tbaa !15
  %67 = load i32, ptr %13, align 4, !tbaa !15
  call void @llvm.lifetime.start.p0(i64 4, ptr %23) #3
  %68 = load i32, ptr %13, align 4, !tbaa !15
  %69 = getelementptr inbounds nuw %"class.OpenImageIO::v3_1_0::ImageOutput", ptr %28, i32 0, i32 1
  %70 = getelementptr inbounds nuw %"class.OpenImageIO::v3_1_0::ImageSpec", ptr %69, i32 0, i32 13
  %71 = load i32, ptr %70, align 4, !tbaa !242
  %72 = add nsw i32 %68, %71
  store i32 %72, ptr %23, align 4, !tbaa !15
  call void @llvm.lifetime.start.p0(i64 4, ptr %24) #3
  %73 = getelementptr inbounds nuw %"class.OpenImageIO::v3_1_0::ImageOutput", ptr %28, i32 0, i32 1
  %74 = getelementptr inbounds nuw %"class.OpenImageIO::v3_1_0::ImageSpec", ptr %73, i32 0, i32 1
  %75 = load i32, ptr %74, align 4, !tbaa !420
  %76 = getelementptr inbounds nuw %"class.OpenImageIO::v3_1_0::ImageOutput", ptr %28, i32 0, i32 1
  %77 = getelementptr inbounds nuw %"class.OpenImageIO::v3_1_0::ImageSpec", ptr %76, i32 0, i32 4
  %78 = load i32, ptr %77, align 8, !tbaa !246
  %79 = add nsw i32 %75, %78
  store i32 %79, ptr %24, align 4, !tbaa !15
  %80 = call noundef nonnull align 4 dereferenceable(4) ptr @_ZSt3minIiERKT_S2_S2_(ptr noundef nonnull align 4 dereferenceable(4) %23, ptr noundef nonnull align 4 dereferenceable(4) %24)
  %81 = load i32, ptr %80, align 4, !tbaa !15
  %82 = load i32, ptr %14, align 4, !tbaa !15
  call void @llvm.lifetime.start.p0(i64 4, ptr %25) #3
  %83 = load i32, ptr %14, align 4, !tbaa !15
  %84 = getelementptr inbounds nuw %"class.OpenImageIO::v3_1_0::ImageOutput", ptr %28, i32 0, i32 1
  %85 = getelementptr inbounds nuw %"class.OpenImageIO::v3_1_0::ImageSpec", ptr %84, i32 0, i32 14
  %86 = load i32, ptr %85, align 8, !tbaa !421
  %87 = add nsw i32 %83, %86
  store i32 %87, ptr %25, align 4, !tbaa !15
  call void @llvm.lifetime.start.p0(i64 4, ptr %26) #3
  %88 = getelementptr inbounds nuw %"class.OpenImageIO::v3_1_0::ImageOutput", ptr %28, i32 0, i32 1
  %89 = getelementptr inbounds nuw %"class.OpenImageIO::v3_1_0::ImageSpec", ptr %88, i32 0, i32 2
  %90 = load i32, ptr %89, align 8, !tbaa !422
  %91 = getelementptr inbounds nuw %"class.OpenImageIO::v3_1_0::ImageOutput", ptr %28, i32 0, i32 1
  %92 = getelementptr inbounds nuw %"class.OpenImageIO::v3_1_0::ImageSpec", ptr %91, i32 0, i32 5
  %93 = load i32, ptr %92, align 4, !tbaa !423
  %94 = add nsw i32 %90, %93
  store i32 %94, ptr %26, align 4, !tbaa !15
  %95 = call noundef nonnull align 4 dereferenceable(4) ptr @_ZSt3minIiERKT_S2_S2_(ptr noundef nonnull align 4 dereferenceable(4) %25, ptr noundef nonnull align 4 dereferenceable(4) %26)
  %96 = load i32, ptr %95, align 4, !tbaa !15
  call void @llvm.memcpy.p0.p0.i64(ptr align 4 %27, ptr align 4 %10, i64 8, i1 false), !tbaa.struct !23
  %97 = load ptr, ptr %15, align 8, !tbaa !296
  %98 = load i64, ptr %16, align 8, !tbaa !251
  %99 = load i64, ptr %17, align 8, !tbaa !251
  %100 = load i64, ptr %18, align 8, !tbaa !251
  %101 = load i64, ptr %27, align 4
  %102 = call noundef zeroext i1 @_ZN11OpenImageIO6v3_1_013OpenEXROutput11write_tilesEiiiiiiNS0_8TypeDescEPKvlll(ptr noundef nonnull align 8 dereferenceable(384) %28, i32 noundef %52, i32 noundef %66, i32 noundef %67, i32 noundef %81, i32 noundef %82, i32 noundef %96, i64 %101, ptr noundef %97, i64 noundef %98, i64 noundef %99, i64 noundef %100)
  call void @llvm.lifetime.end.p0(i64 4, ptr %26) #3
  call void @llvm.lifetime.end.p0(i64 4, ptr %25) #3
  call void @llvm.lifetime.end.p0(i64 4, ptr %24) #3
  call void @llvm.lifetime.end.p0(i64 4, ptr %23) #3
  call void @llvm.lifetime.end.p0(i64 4, ptr %22) #3
  call void @llvm.lifetime.end.p0(i64 4, ptr %21) #3
  call void @llvm.lifetime.end.p0(i64 1, ptr %19) #3
  ret i1 %102
}