; Function Attrs: mustprogress uwtable
define hidden noundef zeroext i1 @_ZN11OpenImageIO6v3_1_013OpenEXROutput10write_tileEiiiNS0_8TypeDescEPKvlll(ptr noundef nonnull align 8 dereferenceable(384) %0, i32 noundef %1, i32 noundef %2, i32 noundef %3, i64 %4, ptr noundef %5, i64 noundef %6, i64 noundef %7, i64 noundef %8) unnamed_addr #6 align 2 {
  %10 = alloca %"struct.OpenImageIO::v3_1_0::TypeDesc", align 8
  %11 = and i64 %4, -4294901761
  %12 = icmp eq i64 %11, 256
  %13 = icmp eq i64 %6, -9223372036854775808
  %or.cond = and i1 %12, %13
  br i1 %or.cond, label %14, label %17

14:                                               ; preds = %9
  %15 = getelementptr inbounds nuw i8, ptr %0, i64 8
  %16 = tail call noundef i64 @_ZNK11OpenImageIO6v3_1_09ImageSpec11pixel_bytesEb(ptr noundef nonnull align 8 dereferenceable(160) %15, i1 noundef zeroext true) #27
  br label %17

17:                                               ; preds = %14, %9
  %.0 = phi i64 [ %16, %14 ], [ %6, %9 ]
  %18 = getelementptr inbounds nuw i8, ptr %0, i64 68
  %19 = load i32, ptr %18, align 4, !tbaa !223
  %20 = getelementptr inbounds nuw i8, ptr %0, i64 56
  %21 = load i32, ptr %20, align 8, !tbaa !189
  %22 = getelementptr inbounds nuw i8, ptr %0, i64 60
  %23 = load i32, ptr %22, align 4, !tbaa !192
  call void @llvm.lifetime.start.p0(i64 8, ptr nonnull %10)
  store i64 %4, ptr %10, align 8
  %24 = call noundef i64 @_ZNK11OpenImageIO6v3_1_08TypeDesc8basesizeEv(ptr noundef nonnull align 4 dereferenceable(8) %10) #27
  %25 = icmp eq i64 %.0, -9223372036854775808
  br i1 %25, label %26, label %_ZN11OpenImageIO6v3_1_09ImageSpec11auto_strideERlS2_S2_NS0_8TypeDescEiii.exit

26:                                               ; preds = %17
  %27 = lshr i64 %4, 8
  %28 = lshr i64 %4, 32
  %29 = trunc nuw i64 %28 to i32
  %30 = and i64 %27, 255
  %narrow.i.i = call i32 @llvm.smax.i32(i32 %29, i32 1)
  %spec.select.i.i = zext nneg i32 %narrow.i.i to i64
  %31 = sext i32 %19 to i64
  %32 = mul nuw nsw i64 %30, %spec.select.i.i
  %33 = mul i64 %32, %31
  %34 = mul i64 %33, %24
  br label %_ZN11OpenImageIO6v3_1_09ImageSpec11auto_strideERlS2_S2_NS0_8TypeDescEiii.exit

_ZN11OpenImageIO6v3_1_09ImageSpec11auto_strideERlS2_S2_NS0_8TypeDescEiii.exit: ; preds = %26, %17
  %.1 = phi i64 [ %34, %26 ], [ %.0, %17 ]
  %35 = getelementptr inbounds nuw i8, ptr %0, i64 8
  %36 = icmp eq i64 %7, -9223372036854775808
  %37 = sext i32 %21 to i64
  %38 = mul nsw i64 %.1, %37
  %.050 = select i1 %36, i64 %38, i64 %7
  %39 = icmp eq i64 %8, -9223372036854775808
  %40 = sext i32 %23 to i64
  %41 = mul nsw i64 %.050, %40
  %.051 = select i1 %39, i64 %41, i64 %8
  call void @llvm.lifetime.end.p0(i64 8, ptr nonnull %10)
  %42 = load i32, ptr %20, align 8, !tbaa !189
  %43 = add nsw i32 %42, %1
  %44 = load i32, ptr %35, align 8, !tbaa !323
  %45 = getelementptr inbounds nuw i8, ptr %0, i64 20
  %46 = load i32, ptr %45, align 4, !tbaa !194
  %47 = add nsw i32 %46, %44
  %.sroa.speculated21 = call i32 @llvm.smin.i32(i32 %47, i32 %43)
  %48 = load i32, ptr %22, align 4, !tbaa !192
  %49 = add nsw i32 %48, %2
  %50 = getelementptr inbounds nuw i8, ptr %0, i64 12
  %51 = load i32, ptr %50, align 4, !tbaa !366
  %52 = getelementptr inbounds nuw i8, ptr %0, i64 24
  %53 = load i32, ptr %52, align 8, !tbaa !196
  %54 = add nsw i32 %53, %51
  %.sroa.speculated16 = call i32 @llvm.smin.i32(i32 %54, i32 %49)
  %55 = getelementptr inbounds nuw i8, ptr %0, i64 64
  %56 = load i32, ptr %55, align 8, !tbaa !367
  %57 = add nsw i32 %56, %3
  %58 = getelementptr inbounds nuw i8, ptr %0, i64 16
  %59 = load i32, ptr %58, align 8, !tbaa !368
  %60 = getelementptr inbounds nuw i8, ptr %0, i64 28
  %61 = load i32, ptr %60, align 4, !tbaa !369
  %62 = add nsw i32 %61, %59
  %.sroa.speculated = call i32 @llvm.smin.i32(i32 %62, i32 %57)
  %63 = call noundef zeroext i1 @_ZN11OpenImageIO6v3_1_013OpenEXROutput11write_tilesEiiiiiiNS0_8TypeDescEPKvlll(ptr noundef nonnull align 8 dereferenceable(384) %0, i32 noundef %1, i32 noundef %.sroa.speculated21, i32 noundef %2, i32 noundef %.sroa.speculated16, i32 noundef %3, i32 noundef %.sroa.speculated, i64 %4, ptr noundef %5, i64 noundef %.1, i64 noundef %.050, i64 noundef %.051)
  ret i1 %63
}